target datalayout = "e-m:e-p270:32:32-p271:32:32-p272:64:64-i64:64-i128:128-f80:128-n8:16:32:64-S128"
target triple = "x86_64-pc-linux-gnu"

%struct.AVRational = type { i32, i32 }

; Function Attrs: nounwind uwtable
define internal i64 @update_sar(i32 noundef %0, i32 noundef %1, i64 %2, i32 noundef %3, i32 noundef %4) #0 {
  %6 = alloca %struct.AVRational, align 4
  %7 = alloca %struct.AVRational, align 4
  %8 = alloca i32, align 4
  %9 = alloca i32, align 4
  %10 = alloca i32, align 4
  %11 = alloca i32, align 4
  %12 = alloca %struct.AVRational, align 4
  %13 = alloca %struct.AVRational, align 4
  %14 = alloca %struct.AVRational, align 4
  %15 = alloca %struct.AVRational, align 4
  %16 = alloca %struct.AVRational, align 4
  store i64 %2, ptr %7, align 4
  store i32 %0, ptr %8, align 4, !tbaa !9
  store i32 %1, ptr %9, align 4, !tbaa !9
  store i32 %3, ptr %10, align 4, !tbaa !9
  store i32 %4, ptr %11, align 4, !tbaa !9
  %17 = getelementptr inbounds nuw %struct.AVRational, ptr %7, i32 0, i32 0
  %18 = load i32, ptr %17, align 4, !tbaa !146
  %19 = icmp ne i32 %18, 0
  br i1 %19, label %23, label %20

20:                                               ; preds = %5
  %21 = getelementptr inbounds nuw %struct.AVRational, ptr %12, i32 0, i32 0
  store i32 1, ptr %21, align 4, !tbaa !146
  %22 = getelementptr inbounds nuw %struct.AVRational, ptr %12, i32 0, i32 1
  store i32 1, ptr %22, align 4, !tbaa !147
  call void @llvm.memcpy.p0.p0.i64(ptr align 4 %7, ptr align 4 %12, i64 8, i1 false), !tbaa.struct !120
  br label %23

23:                                               ; preds = %20, %5
  call void @llvm.lifetime.start.p0(i64 8, ptr %13) #12
  %24 = getelementptr inbounds nuw %struct.AVRational, ptr %15, i32 0, i32 0
  %25 = load i32, ptr %11, align 4, !tbaa !9
  store i32 %25, ptr %24, align 4, !tbaa !146
  %26 = getelementptr inbounds nuw %struct.AVRational, ptr %15, i32 0, i32 1
  %27 = load i32, ptr %10, align 4, !tbaa !9
  store i32 %27, ptr %26, align 4, !tbaa !147
  %28 = getelementptr inbounds nuw %struct.AVRational, ptr %16, i32 0, i32 0
  %29 = load i32, ptr %8, align 4, !tbaa !9
  store i32 %29, ptr %28, align 4, !tbaa !146
  %30 = getelementptr inbounds nuw %struct.AVRational, ptr %16, i32 0, i32 1
  %31 = load i32, ptr %9, align 4, !tbaa !9
  store i32 %31, ptr %30, align 4, !tbaa !147
  %32 = load i64, ptr %15, align 4
  %33 = load i64, ptr %16, align 4
  %34 = call i64 @av_mul_q(i64 %32, i64 %33) #13
  store i64 %34, ptr %14, align 4
  %35 = load i64, ptr %7, align 4
  %36 = load i64, ptr %14, align 4
  %37 = call i64 @av_mul_q(i64 %35, i64 %36) #13
  store i64 %37, ptr %13, align 4
  call void @llvm.memcpy.p0.p0.i64(ptr align 4 %7, ptr align 4 %13, i64 8, i1 false), !tbaa.struct !120
  call void @llvm.lifetime.end.p0(i64 8, ptr %13) #12
  call void @llvm.memcpy.p0.p0.i64(ptr align 4 %6, ptr align 4 %7, i64 8, i1 false), !tbaa.struct !120
  %38 = load i64, ptr %6, align 4
  ret i64 %38
}