; Function Attrs: mustprogress nofree nosync nounwind willreturn memory(none) uwtable
define internal fastcc i64 @update_sar(i32 noundef %0, i32 noundef %1, i64 %2, i32 noundef %3, i32 noundef %4) unnamed_addr #6 {
  %6 = and i64 %2, 4294967295
  %.not = icmp eq i64 %6, 0
  %.sroa.22.0.insert.ext = zext i32 %3 to i64
  %.sroa.22.0.insert.shift = shl nuw i64 %.sroa.22.0.insert.ext, 32
  %.sroa.01.0.insert.ext = zext i32 %4 to i64
  %.sroa.01.0.insert.insert = or disjoint i64 %.sroa.22.0.insert.shift, %.sroa.01.0.insert.ext
  %.sroa.2.0.insert.ext = zext i32 %1 to i64
  %.sroa.2.0.insert.shift = shl nuw i64 %.sroa.2.0.insert.ext, 32
  %.sroa.0.0.insert.ext = zext i32 %0 to i64
  %.sroa.0.0.insert.insert = or disjoint i64 %.sroa.2.0.insert.shift, %.sroa.0.0.insert.ext
  %7 = tail call i64 @av_mul_q(i64 %.sroa.01.0.insert.insert, i64 %.sroa.0.0.insert.insert) #18
  %.sroa.010.0.insert.insert = select i1 %.not, i64 4294967297, i64 %2
  %8 = tail call i64 @av_mul_q(i64 %.sroa.010.0.insert.insert, i64 %7) #18
  ret i64 %8
}